target datalayout = "e-m:e-p270:32:32-p271:32:32-p272:64:64-i64:64-i128:128-f80:128-n8:16:32:64-S128"
target triple = "x86_64-pc-linux-gnu"

%"class.pxrInternal_v0_24__pxrReserved__::TfPatternMatcher" = type { i8, i8, %"class.std::__cxx11::basic_string", i8, %"class.pxrInternal_v0_24__pxrReserved__::ArchRegex" }
%"class.std::__cxx11::basic_string" = type { %"struct.std::__cxx11::basic_string<char>::_Alloc_hider", i64, %union.anon }
%"struct.std::__cxx11::basic_string<char>::_Alloc_hider" = type { ptr }
%union.anon = type { i64, [8 x i8] }
%"class.pxrInternal_v0_24__pxrReserved__::ArchRegex" = type { i32, %"class.std::__cxx11::basic_string", %"class.std::shared_ptr" }
%"class.std::shared_ptr" = type { %"class.std::__shared_ptr" }
%"class.std::__shared_ptr" = type { ptr, %"class.std::__shared_count" }
%"class.std::__shared_count" = type { ptr }

; Function Attrs: mustprogress uwtable
define noundef zeroext i1 @_ZNK32pxrInternal_v0_24__pxrReserved__16TfPatternMatcher7IsValidEv(ptr noundef nonnull align 8 dereferenceable(104) %0) #2 align 2 {
  %2 = alloca ptr, align 8
  store ptr %0, ptr %2, align 8
  %3 = load ptr, ptr %2, align 8
  call void @_ZNK32pxrInternal_v0_24__pxrReserved__16TfPatternMatcher8_CompileEv(ptr noundef nonnull align 8 dereferenceable(104) %3)
  %4 = getelementptr inbounds nuw %"class.pxrInternal_v0_24__pxrReserved__::TfPatternMatcher", ptr %3, i32 0, i32 4
  %5 = call noundef zeroext i1 @_ZNK32pxrInternal_v0_24__pxrReserved__9ArchRegexcvbEv(ptr noundef nonnull align 8 dereferenceable(56) %4)
  ret i1 %5
}

; Function Attrs: mustprogress uwtable
define noundef zeroext i1 @_ZNK32pxrInternal_v0_24__pxrReserved__16TfPatternMatcher5MatchERKNSt7__cxx1112basic_stringIcSt11char_traitsIcESaIcEEEPS6_(ptr noundef nonnull align 8 dereferenceable(104) %0, ptr noundef nonnull align 8 dereferenceable(32) %1, ptr noundef %2) #2 align 2 {
  %4 = alloca i1, align 1
  %5 = alloca ptr, align 8
  %6 = alloca ptr, align 8
  %7 = alloca ptr, align 8
  %8 = alloca %"class.std::__cxx11::basic_string", align 8
  store ptr %0, ptr %5, align 8
  store ptr %1, ptr %6, align 8
  store ptr %2, ptr %7, align 8
  %9 = load ptr, ptr %5, align 8
  %10 = call noundef zeroext i1 @_ZNK32pxrInternal_v0_24__pxrReserved__16TfPatternMatcher7IsValidEv(ptr noundef nonnull align 8 dereferenceable(104) %9)
  br i1 %10, label %11, label %20

11:                                               ; preds = %3
  %12 = load ptr, ptr %7, align 8
  %13 = icmp ne ptr %12, null
  br i1 %13, label %14, label %16

14:                                               ; preds = %11
  %15 = load ptr, ptr %7, align 8
  call void @_ZNSt7__cxx1112basic_stringIcSt11char_traitsIcESaIcEE5clearEv(ptr noundef nonnull align 8 dereferenceable(32) %15) #5
  br label %16

16:                                               ; preds = %14, %11
  %17 = getelementptr inbounds nuw %"class.pxrInternal_v0_24__pxrReserved__::TfPatternMatcher", ptr %9, i32 0, i32 4
  %18 = load ptr, ptr %6, align 8
  %19 = call noundef zeroext i1 @_ZNK32pxrInternal_v0_24__pxrReserved__9ArchRegex5MatchERKNSt7__cxx1112basic_stringIcSt11char_traitsIcESaIcEEE(ptr noundef nonnull align 8 dereferenceable(56) %17, ptr noundef nonnull align 8 dereferenceable(32) %18)
  store i1 %19, ptr %4, align 1
  br label %28

20:                                               ; preds = %3
  %21 = load ptr, ptr %7, align 8
  %22 = icmp ne ptr %21, null
  br i1 %22, label %23, label %27

23:                                               ; preds = %20
  %24 = getelementptr inbounds nuw %"class.pxrInternal_v0_24__pxrReserved__::TfPatternMatcher", ptr %9, i32 0, i32 4
  call void @_ZNK32pxrInternal_v0_24__pxrReserved__9ArchRegex8GetErrorB5cxx11Ev(ptr dead_on_unwind writable sret(%"class.std::__cxx11::basic_string") align 8 %8, ptr noundef nonnull align 8 dereferenceable(56) %24)
  %25 = load ptr, ptr %7, align 8
  %26 = call noundef nonnull align 8 dereferenceable(32) ptr @_ZNSt7__cxx1112basic_stringIcSt11char_traitsIcESaIcEEaSEOS4_(ptr noundef nonnull align 8 dereferenceable(32) %25, ptr noundef nonnull align 8 dereferenceable(32) %8) #5
  call void @_ZNSt7__cxx1112basic_stringIcSt11char_traitsIcESaIcEED1Ev(ptr noundef nonnull align 8 dereferenceable(32) %8) #5
  br label %27

27:                                               ; preds = %23, %20
  store i1 false, ptr %4, align 1
  br label %28

28:                                               ; preds = %27, %16
  %29 = load i1, ptr %4, align 1
  ret i1 %29
}