; Function Attrs: mustprogress uwtable
define noundef zeroext i1 @_ZNK32pxrInternal_v0_24__pxrReserved__16TfPatternMatcher5MatchERKNSt7__cxx1112basic_stringIcSt11char_traitsIcESaIcEEEPS6_(ptr noundef nonnull align 8 dereferenceable(104) %0, ptr noundef nonnull align 8 dereferenceable(32) %1, ptr noundef %2) local_unnamed_addr #2 align 2 {
  %4 = alloca %"class.std::__cxx11::basic_string", align 8
  tail call void @_ZNK32pxrInternal_v0_24__pxrReserved__16TfPatternMatcher8_CompileEv(ptr noundef nonnull align 8 dereferenceable(104) %0)
  %5 = getelementptr inbounds nuw i8, ptr %0, i64 48
  %6 = tail call noundef zeroext i1 @_ZNK32pxrInternal_v0_24__pxrReserved__9ArchRegexcvbEv(ptr noundef nonnull align 8 dereferenceable(56) %5)
  %.not8 = icmp eq ptr %2, null
  br i1 %6, label %7, label %11

7:                                                ; preds = %3
  br i1 %.not8, label %9, label %8

8:                                                ; preds = %7
  tail call void @_ZNSt7__cxx1112basic_stringIcSt11char_traitsIcESaIcEE5clearEv(ptr noundef nonnull align 8 dereferenceable(32) %2) #7
  br label %9

9:                                                ; preds = %8, %7
  %10 = tail call noundef zeroext i1 @_ZNK32pxrInternal_v0_24__pxrReserved__9ArchRegex5MatchERKNSt7__cxx1112basic_stringIcSt11char_traitsIcESaIcEEE(ptr noundef nonnull align 8 dereferenceable(56) %5, ptr noundef nonnull align 8 dereferenceable(32) %1)
  br label %14

11:                                               ; preds = %3
  br i1 %.not8, label %14, label %12

12:                                               ; preds = %11
  call void @_ZNK32pxrInternal_v0_24__pxrReserved__9ArchRegex8GetErrorB5cxx11Ev(ptr dead_on_unwind nonnull writable sret(%"class.std::__cxx11::basic_string") align 8 %4, ptr noundef nonnull align 8 dereferenceable(56) %5)
  %13 = call noundef nonnull align 8 dereferenceable(32) ptr @_ZNSt7__cxx1112basic_stringIcSt11char_traitsIcESaIcEEaSEOS4_(ptr noundef nonnull align 8 dereferenceable(32) %2, ptr noundef nonnull align 8 dereferenceable(32) %4) #7
  call void @_ZNSt7__cxx1112basic_stringIcSt11char_traitsIcESaIcEED1Ev(ptr noundef nonnull align 8 dereferenceable(32) %4) #7
  br label %14

14:                                               ; preds = %11, %12, %9
  %.0 = phi i1 [ %10, %9 ], [ false, %12 ], [ false, %11 ]
  ret i1 %.0
}